target datalayout = "e-m:e-p270:32:32-p271:32:32-p272:64:64-i64:64-i128:128-f80:128-n8:16:32:64-S128"
target triple = "x86_64-pc-linux-gnu"

%class.CryptData = type { [4 x %"struct.CryptData::KDF3CacheItem"], i32, [4 x i8], [4 x %"struct.CryptData::KDF5CacheItem"], i32, i32, %class.Rijndael, [256 x i32], [256 x i8], [4 x i32], [3 x i8], [4 x i16], [4 x i8] }
%"struct.CryptData::KDF3CacheItem" = type { %class.SecPassword, [8 x i8], [16 x i8], [16 x i8], i8, [7 x i8] }
%class.SecPassword = type <{ %"class.std::vector", i8, [7 x i8] }>
%"class.std::vector" = type { %"struct.std::_Vector_base" }
%"struct.std::_Vector_base" = type { %"struct.std::_Vector_base<wchar_t, std::allocator<wchar_t>>::_Vector_impl" }
%"struct.std::_Vector_base<wchar_t, std::allocator<wchar_t>>::_Vector_impl" = type { %"struct.std::_Vector_base<wchar_t, std::allocator<wchar_t>>::_Vector_impl_data" }
%"struct.std::_Vector_base<wchar_t, std::allocator<wchar_t>>::_Vector_impl_data" = type { ptr, ptr, ptr }
%"struct.CryptData::KDF5CacheItem" = type { %class.SecPassword, [16 x i8], [32 x i8], i32, [32 x i8], [32 x i8], [4 x i8] }
%class.Rijndael = type { i8, i32, [16 x i8], [15 x [4 x [4 x i8]]] }

; Function Attrs: mustprogress nounwind uwtable
define void @_ZN9CryptData9UpdKeys20EPh(ptr noundef nonnull align 8 dereferenceable(2516) %0, ptr noundef %1) #0 align 2 {
  %3 = alloca ptr, align 8
  %4 = alloca ptr, align 8
  %5 = alloca i32, align 4
  store ptr %0, ptr %3, align 8
  store ptr %1, ptr %4, align 8
  %6 = load ptr, ptr %3, align 8
  store i32 0, ptr %5, align 4
  br label %7

7:                                                ; preds = %66, %2
  %8 = load i32, ptr %5, align 4
  %9 = icmp slt i32 %8, 16
  br i1 %9, label %10, label %69

10:                                               ; preds = %7
  %11 = getelementptr inbounds %class.CryptData, ptr %6, i32 0, i32 7
  %12 = load ptr, ptr %4, align 8
  %13 = load i32, ptr %5, align 4
  %14 = sext i32 %13 to i64
  %15 = getelementptr inbounds i8, ptr %12, i64 %14
  %16 = load i8, ptr %15, align 1
  %17 = zext i8 %16 to i64
  %18 = getelementptr inbounds [256 x i32], ptr %11, i64 0, i64 %17
  %19 = load i32, ptr %18, align 4
  %20 = getelementptr inbounds %class.CryptData, ptr %6, i32 0, i32 9
  %21 = getelementptr inbounds [4 x i32], ptr %20, i64 0, i64 0
  %22 = load i32, ptr %21, align 8
  %23 = xor i32 %22, %19
  store i32 %23, ptr %21, align 8
  %24 = getelementptr inbounds %class.CryptData, ptr %6, i32 0, i32 7
  %25 = load ptr, ptr %4, align 8
  %26 = load i32, ptr %5, align 4
  %27 = add nsw i32 %26, 1
  %28 = sext i32 %27 to i64
  %29 = getelementptr inbounds i8, ptr %25, i64 %28
  %30 = load i8, ptr %29, align 1
  %31 = zext i8 %30 to i64
  %32 = getelementptr inbounds [256 x i32], ptr %24, i64 0, i64 %31
  %33 = load i32, ptr %32, align 4
  %34 = getelementptr inbounds %class.CryptData, ptr %6, i32 0, i32 9
  %35 = getelementptr inbounds [4 x i32], ptr %34, i64 0, i64 1
  %36 = load i32, ptr %35, align 4
  %37 = xor i32 %36, %33
  store i32 %37, ptr %35, align 4
  %38 = getelementptr inbounds %class.CryptData, ptr %6, i32 0, i32 7
  %39 = load ptr, ptr %4, align 8
  %40 = load i32, ptr %5, align 4
  %41 = add nsw i32 %40, 2
  %42 = sext i32 %41 to i64
  %43 = getelementptr inbounds i8, ptr %39, i64 %42
  %44 = load i8, ptr %43, align 1
  %45 = zext i8 %44 to i64
  %46 = getelementptr inbounds [256 x i32], ptr %38, i64 0, i64 %45
  %47 = load i32, ptr %46, align 4
  %48 = getelementptr inbounds %class.CryptData, ptr %6, i32 0, i32 9
  %49 = getelementptr inbounds [4 x i32], ptr %48, i64 0, i64 2
  %50 = load i32, ptr %49, align 8
  %51 = xor i32 %50, %47
  store i32 %51, ptr %49, align 8
  %52 = getelementptr inbounds %class.CryptData, ptr %6, i32 0, i32 7
  %53 = load ptr, ptr %4, align 8
  %54 = load i32, ptr %5, align 4
  %55 = add nsw i32 %54, 3
  %56 = sext i32 %55 to i64
  %57 = getelementptr inbounds i8, ptr %53, i64 %56
  %58 = load i8, ptr %57, align 1
  %59 = zext i8 %58 to i64
  %60 = getelementptr inbounds [256 x i32], ptr %52, i64 0, i64 %59
  %61 = load i32, ptr %60, align 4
  %62 = getelementptr inbounds %class.CryptData, ptr %6, i32 0, i32 9
  %63 = getelementptr inbounds [4 x i32], ptr %62, i64 0, i64 3
  %64 = load i32, ptr %63, align 4
  %65 = xor i32 %64, %61
  store i32 %65, ptr %63, align 4
  br label %66

66:                                               ; preds = %10
  %67 = load i32, ptr %5, align 4
  %68 = add nsw i32 %67, 4
  store i32 %68, ptr %5, align 4
  br label %7, !llvm.loop !15

69:                                               ; preds = %7
  ret void
}

; Function Attrs: mustprogress nounwind uwtable
define linkonce_odr void @_Z7RawPut4jPv(i32 noundef %0, ptr noundef %1) #0 comdat {
  %3 = alloca i32, align 4
  %4 = alloca ptr, align 8
  store i32 %0, ptr %3, align 4
  store ptr %1, ptr %4, align 8
  %5 = load i32, ptr %3, align 4
  %6 = load ptr, ptr %4, align 8
  store i32 %5, ptr %6, align 4
  ret void
}

; Function Attrs: mustprogress nounwind uwtable
define linkonce_odr noundef i32 @_Z7RawGet4PKv(ptr noundef %0) #0 comdat {
  %2 = alloca ptr, align 8
  store ptr %0, ptr %2, align 8
  %3 = load ptr, ptr %2, align 8
  %4 = load i32, ptr %3, align 4
  ret i32 %4
}

; Function Attrs: mustprogress uwtable
define void @_ZN9CryptData14DecryptBlock20EPh(ptr noundef nonnull align 8 dereferenceable(2516) %0, ptr noundef %1) #1 align 2 {
  %3 = alloca ptr, align 8
  %4 = alloca ptr, align 8
  %5 = alloca [16 x i8], align 16
  %6 = alloca i32, align 4
  %7 = alloca i32, align 4
  %8 = alloca i32, align 4
  %9 = alloca i32, align 4
  %10 = alloca i32, align 4
  %11 = alloca i32, align 4
  %12 = alloca i32, align 4
  %13 = alloca i32, align 4
  store ptr %0, ptr %3, align 8
  store ptr %1, ptr %4, align 8
  %14 = load ptr, ptr %3, align 8
  %15 = load ptr, ptr %4, align 8
  %16 = getelementptr inbounds i8, ptr %15, i64 0
  %17 = call noundef i32 @_Z7RawGet4PKv(ptr noundef %16)
  %18 = getelementptr inbounds %class.CryptData, ptr %14, i32 0, i32 9
  %19 = getelementptr inbounds [4 x i32], ptr %18, i64 0, i64 0
  %20 = load i32, ptr %19, align 8
  %21 = xor i32 %17, %20
  store i32 %21, ptr %6, align 4
  %22 = load ptr, ptr %4, align 8
  %23 = getelementptr inbounds i8, ptr %22, i64 4
  %24 = call noundef i32 @_Z7RawGet4PKv(ptr noundef %23)
  %25 = getelementptr inbounds %class.CryptData, ptr %14, i32 0, i32 9
  %26 = getelementptr inbounds [4 x i32], ptr %25, i64 0, i64 1
  %27 = load i32, ptr %26, align 4
  %28 = xor i32 %24, %27
  store i32 %28, ptr %7, align 4
  %29 = load ptr, ptr %4, align 8
  %30 = getelementptr inbounds i8, ptr %29, i64 8
  %31 = call noundef i32 @_Z7RawGet4PKv(ptr noundef %30)
  %32 = getelementptr inbounds %class.CryptData, ptr %14, i32 0, i32 9
  %33 = getelementptr inbounds [4 x i32], ptr %32, i64 0, i64 2
  %34 = load i32, ptr %33, align 8
  %35 = xor i32 %31, %34
  store i32 %35, ptr %8, align 4
  %36 = load ptr, ptr %4, align 8
  %37 = getelementptr inbounds i8, ptr %36, i64 12
  %38 = call noundef i32 @_Z7RawGet4PKv(ptr noundef %37)
  %39 = getelementptr inbounds %class.CryptData, ptr %14, i32 0, i32 9
  %40 = getelementptr inbounds [4 x i32], ptr %39, i64 0, i64 3
  %41 = load i32, ptr %40, align 4
  %42 = xor i32 %38, %41
  store i32 %42, ptr %9, align 4
  %43 = getelementptr inbounds [16 x i8], ptr %5, i64 0, i64 0
  %44 = load ptr, ptr %4, align 8
  call void @llvm.memcpy.p0.p0.i64(ptr align 16 %43, ptr align 1 %44, i64 16, i1 false)
  store i32 31, ptr %13, align 4
  br label %45

45:                                               ; preds = %159, %2
  %46 = load i32, ptr %13, align 4
  %47 = icmp sge i32 %46, 0
  br i1 %47, label %48, label %162

48:                                               ; preds = %45
  %49 = load i32, ptr %8, align 4
  %50 = load i32, ptr %9, align 4
  %51 = shl i32 %50, 11
  %52 = load i32, ptr %9, align 4
  %53 = lshr i32 %52, 21
  %54 = or i32 %51, %53
  %55 = add i32 %49, %54
  %56 = getelementptr inbounds %class.CryptData, ptr %14, i32 0, i32 9
  %57 = load i32, ptr %13, align 4
  %58 = and i32 %57, 3
  %59 = sext i32 %58 to i64
  %60 = getelementptr inbounds [4 x i32], ptr %56, i64 0, i64 %59
  %61 = load i32, ptr %60, align 4
  %62 = xor i32 %55, %61
  store i32 %62, ptr %10, align 4
  %63 = load i32, ptr %6, align 4
  %64 = getelementptr inbounds %class.CryptData, ptr %14, i32 0, i32 8
  %65 = load i32, ptr %10, align 4
  %66 = and i32 %65, 255
  %67 = zext i32 %66 to i64
  %68 = getelementptr inbounds [256 x i8], ptr %64, i64 0, i64 %67
  %69 = load i8, ptr %68, align 1
  %70 = zext i8 %69 to i32
  %71 = getelementptr inbounds %class.CryptData, ptr %14, i32 0, i32 8
  %72 = load i32, ptr %10, align 4
  %73 = lshr i32 %72, 8
  %74 = and i32 %73, 255
  %75 = sext i32 %74 to i64
  %76 = getelementptr inbounds [256 x i8], ptr %71, i64 0, i64 %75
  %77 = load i8, ptr %76, align 1
  %78 = zext i8 %77 to i32
  %79 = shl i32 %78, 8
  %80 = or i32 %70, %79
  %81 = getelementptr inbounds %class.CryptData, ptr %14, i32 0, i32 8
  %82 = load i32, ptr %10, align 4
  %83 = lshr i32 %82, 16
  %84 = and i32 %83, 255
  %85 = sext i32 %84 to i64
  %86 = getelementptr inbounds [256 x i8], ptr %81, i64 0, i64 %85
  %87 = load i8, ptr %86, align 1
  %88 = zext i8 %87 to i32
  %89 = shl i32 %88, 16
  %90 = or i32 %80, %89
  %91 = getelementptr inbounds %class.CryptData, ptr %14, i32 0, i32 8
  %92 = load i32, ptr %10, align 4
  %93 = lshr i32 %92, 24
  %94 = and i32 %93, 255
  %95 = sext i32 %94 to i64
  %96 = getelementptr inbounds [256 x i8], ptr %91, i64 0, i64 %95
  %97 = load i8, ptr %96, align 1
  %98 = zext i8 %97 to i32
  %99 = shl i32 %98, 24
  %100 = or i32 %90, %99
  %101 = xor i32 %63, %100
  store i32 %101, ptr %11, align 4
  %102 = load i32, ptr %9, align 4
  %103 = load i32, ptr %8, align 4
  %104 = shl i32 %103, 17
  %105 = load i32, ptr %8, align 4
  %106 = lshr i32 %105, 15
  %107 = or i32 %104, %106
  %108 = xor i32 %102, %107
  %109 = getelementptr inbounds %class.CryptData, ptr %14, i32 0, i32 9
  %110 = load i32, ptr %13, align 4
  %111 = and i32 %110, 3
  %112 = sext i32 %111 to i64
  %113 = getelementptr inbounds [4 x i32], ptr %109, i64 0, i64 %112
  %114 = load i32, ptr %113, align 4
  %115 = add i32 %108, %114
  store i32 %115, ptr %10, align 4
  %116 = load i32, ptr %7, align 4
  %117 = getelementptr inbounds %class.CryptData, ptr %14, i32 0, i32 8
  %118 = load i32, ptr %10, align 4
  %119 = and i32 %118, 255
  %120 = zext i32 %119 to i64
  %121 = getelementptr inbounds [256 x i8], ptr %117, i64 0, i64 %120
  %122 = load i8, ptr %121, align 1
  %123 = zext i8 %122 to i32
  %124 = getelementptr inbounds %class.CryptData, ptr %14, i32 0, i32 8
  %125 = load i32, ptr %10, align 4
  %126 = lshr i32 %125, 8
  %127 = and i32 %126, 255
  %128 = sext i32 %127 to i64
  %129 = getelementptr inbounds [256 x i8], ptr %124, i64 0, i64 %128
  %130 = load i8, ptr %129, align 1
  %131 = zext i8 %130 to i32
  %132 = shl i32 %131, 8
  %133 = or i32 %123, %132
  %134 = getelementptr inbounds %class.CryptData, ptr %14, i32 0, i32 8
  %135 = load i32, ptr %10, align 4
  %136 = lshr i32 %135, 16
  %137 = and i32 %136, 255
  %138 = sext i32 %137 to i64
  %139 = getelementptr inbounds [256 x i8], ptr %134, i64 0, i64 %138
  %140 = load i8, ptr %139, align 1
  %141 = zext i8 %140 to i32
  %142 = shl i32 %141, 16
  %143 = or i32 %133, %142
  %144 = getelementptr inbounds %class.CryptData, ptr %14, i32 0, i32 8
  %145 = load i32, ptr %10, align 4
  %146 = lshr i32 %145, 24
  %147 = and i32 %146, 255
  %148 = sext i32 %147 to i64
  %149 = getelementptr inbounds [256 x i8], ptr %144, i64 0, i64 %148
  %150 = load i8, ptr %149, align 1
  %151 = zext i8 %150 to i32
  %152 = shl i32 %151, 24
  %153 = or i32 %143, %152
  %154 = xor i32 %116, %153
  store i32 %154, ptr %12, align 4
  %155 = load i32, ptr %8, align 4
  store i32 %155, ptr %6, align 4
  %156 = load i32, ptr %9, align 4
  store i32 %156, ptr %7, align 4
  %157 = load i32, ptr %11, align 4
  store i32 %157, ptr %8, align 4
  %158 = load i32, ptr %12, align 4
  store i32 %158, ptr %9, align 4
  br label %159

159:                                              ; preds = %48
  %160 = load i32, ptr %13, align 4
  %161 = add nsw i32 %160, -1
  store i32 %161, ptr %13, align 4
  br label %45, !llvm.loop !16

162:                                              ; preds = %45
  %163 = load i32, ptr %8, align 4
  %164 = getelementptr inbounds %class.CryptData, ptr %14, i32 0, i32 9
  %165 = getelementptr inbounds [4 x i32], ptr %164, i64 0, i64 0
  %166 = load i32, ptr %165, align 8
  %167 = xor i32 %163, %166
  %168 = load ptr, ptr %4, align 8
  %169 = getelementptr inbounds i8, ptr %168, i64 0
  call void @_Z7RawPut4jPv(i32 noundef %167, ptr noundef %169)
  %170 = load i32, ptr %9, align 4
  %171 = getelementptr inbounds %class.CryptData, ptr %14, i32 0, i32 9
  %172 = getelementptr inbounds [4 x i32], ptr %171, i64 0, i64 1
  %173 = load i32, ptr %172, align 4
  %174 = xor i32 %170, %173
  %175 = load ptr, ptr %4, align 8
  %176 = getelementptr inbounds i8, ptr %175, i64 4
  call void @_Z7RawPut4jPv(i32 noundef %174, ptr noundef %176)
  %177 = load i32, ptr %6, align 4
  %178 = getelementptr inbounds %class.CryptData, ptr %14, i32 0, i32 9
  %179 = getelementptr inbounds [4 x i32], ptr %178, i64 0, i64 2
  %180 = load i32, ptr %179, align 8
  %181 = xor i32 %177, %180
  %182 = load ptr, ptr %4, align 8
  %183 = getelementptr inbounds i8, ptr %182, i64 8
  call void @_Z7RawPut4jPv(i32 noundef %181, ptr noundef %183)
  %184 = load i32, ptr %7, align 4
  %185 = getelementptr inbounds %class.CryptData, ptr %14, i32 0, i32 9
  %186 = getelementptr inbounds [4 x i32], ptr %185, i64 0, i64 3
  %187 = load i32, ptr %186, align 4
  %188 = xor i32 %184, %187
  %189 = load ptr, ptr %4, align 8
  %190 = getelementptr inbounds i8, ptr %189, i64 12
  call void @_Z7RawPut4jPv(i32 noundef %188, ptr noundef %190)
  %191 = getelementptr inbounds [16 x i8], ptr %5, i64 0, i64 0
  call void @_ZN9CryptData9UpdKeys20EPh(ptr noundef nonnull align 8 dereferenceable(2516) %14, ptr noundef %191)
  ret void
}