; Function Attrs: mustprogress nofree norecurse nosync nounwind memory(argmem: readwrite) uwtable
define void @_ZN9CryptData14DecryptBlock20EPh(ptr noundef nonnull align 8 captures(none) dereferenceable(2516) %0, ptr noundef captures(none) %1) local_unnamed_addr #0 align 2 {
  %3 = alloca [16 x i8], align 16
  %4 = load i32, ptr %1, align 4
  %5 = getelementptr inbounds nuw i8, ptr %0, i64 2488
  %6 = load i32, ptr %5, align 8
  %7 = xor i32 %6, %4
  %8 = getelementptr inbounds nuw i8, ptr %1, i64 4
  %9 = load i32, ptr %8, align 4
  %10 = getelementptr inbounds nuw i8, ptr %0, i64 2492
  %11 = load i32, ptr %10, align 4
  %12 = xor i32 %11, %9
  %13 = getelementptr inbounds nuw i8, ptr %1, i64 8
  %14 = load i32, ptr %13, align 4
  %15 = getelementptr inbounds nuw i8, ptr %0, i64 2496
  %16 = load i32, ptr %15, align 8
  %17 = xor i32 %16, %14
  %18 = getelementptr inbounds nuw i8, ptr %1, i64 12
  %19 = load i32, ptr %18, align 4
  %20 = getelementptr inbounds nuw i8, ptr %0, i64 2500
  %21 = load i32, ptr %20, align 4
  %22 = xor i32 %21, %19
  call void @llvm.memcpy.p0.p0.i64(ptr noundef nonnull align 16 dereferenceable(16) %3, ptr noundef nonnull align 1 dereferenceable(16) %1, i64 16, i1 false)
  %23 = getelementptr inbounds nuw i8, ptr %0, i64 2232
  br label %24

24:                                               ; preds = %2, %24
  %.045 = phi i32 [ 31, %2 ], [ %93, %24 ]
  %.03744 = phi i32 [ %7, %2 ], [ %.03942, %24 ]
  %.03843 = phi i32 [ %12, %2 ], [ %.04041, %24 ]
  %.03942 = phi i32 [ %17, %2 ], [ %60, %24 ]
  %.04041 = phi i32 [ %22, %2 ], [ %92, %24 ]
  %25 = tail call i32 @llvm.fshl.i32(i32 %.04041, i32 %.04041, i32 11)
  %26 = add i32 %.03942, %25
  %27 = and i32 %.045, 3
  %28 = zext nneg i32 %27 to i64
  %29 = getelementptr inbounds nuw [4 x i32], ptr %5, i64 0, i64 %28
  %30 = load i32, ptr %29, align 4
  %31 = xor i32 %30, %26
  %32 = and i32 %31, 255
  %33 = zext nneg i32 %32 to i64
  %34 = getelementptr inbounds nuw [256 x i8], ptr %23, i64 0, i64 %33
  %35 = load i8, ptr %34, align 1
  %36 = zext i8 %35 to i32
  %37 = lshr i32 %31, 8
  %38 = and i32 %37, 255
  %39 = zext nneg i32 %38 to i64
  %40 = getelementptr inbounds nuw [256 x i8], ptr %23, i64 0, i64 %39
  %41 = load i8, ptr %40, align 1
  %42 = zext i8 %41 to i32
  %43 = shl nuw nsw i32 %42, 8
  %44 = or disjoint i32 %43, %36
  %45 = lshr i32 %31, 16
  %46 = and i32 %45, 255
  %47 = zext nneg i32 %46 to i64
  %48 = getelementptr inbounds nuw [256 x i8], ptr %23, i64 0, i64 %47
  %49 = load i8, ptr %48, align 1
  %50 = zext i8 %49 to i32
  %51 = shl nuw nsw i32 %50, 16
  %52 = or disjoint i32 %44, %51
  %53 = lshr i32 %31, 24
  %54 = zext nneg i32 %53 to i64
  %55 = getelementptr inbounds nuw [256 x i8], ptr %23, i64 0, i64 %54
  %56 = load i8, ptr %55, align 1
  %57 = zext i8 %56 to i32
  %58 = shl nuw i32 %57, 24
  %59 = or disjoint i32 %52, %58
  %60 = xor i32 %59, %.03744
  %61 = tail call i32 @llvm.fshl.i32(i32 %.03942, i32 %.03942, i32 17)
  %62 = xor i32 %61, %.04041
  %63 = add i32 %30, %62
  %64 = and i32 %63, 255
  %65 = zext nneg i32 %64 to i64
  %66 = getelementptr inbounds nuw [256 x i8], ptr %23, i64 0, i64 %65
  %67 = load i8, ptr %66, align 1
  %68 = zext i8 %67 to i32
  %69 = lshr i32 %63, 8
  %70 = and i32 %69, 255
  %71 = zext nneg i32 %70 to i64
  %72 = getelementptr inbounds nuw [256 x i8], ptr %23, i64 0, i64 %71
  %73 = load i8, ptr %72, align 1
  %74 = zext i8 %73 to i32
  %75 = shl nuw nsw i32 %74, 8
  %76 = or disjoint i32 %75, %68
  %77 = lshr i32 %63, 16
  %78 = and i32 %77, 255
  %79 = zext nneg i32 %78 to i64
  %80 = getelementptr inbounds nuw [256 x i8], ptr %23, i64 0, i64 %79
  %81 = load i8, ptr %80, align 1
  %82 = zext i8 %81 to i32
  %83 = shl nuw nsw i32 %82, 16
  %84 = or disjoint i32 %76, %83
  %85 = lshr i32 %63, 24
  %86 = zext nneg i32 %85 to i64
  %87 = getelementptr inbounds nuw [256 x i8], ptr %23, i64 0, i64 %86
  %88 = load i8, ptr %87, align 1
  %89 = zext i8 %88 to i32
  %90 = shl nuw i32 %89, 24
  %91 = or disjoint i32 %84, %90
  %92 = xor i32 %91, %.03843
  %93 = add nsw i32 %.045, -1
  %.not = icmp eq i32 %.045, 0
  br i1 %.not, label %94, label %24, !llvm.loop !15

94:                                               ; preds = %24
  %95 = xor i32 %60, %6
  store i32 %95, ptr %1, align 4
  %96 = load i32, ptr %10, align 4
  %97 = xor i32 %96, %92
  store i32 %97, ptr %8, align 4
  %98 = load i32, ptr %15, align 8
  %99 = xor i32 %98, %.03942
  store i32 %99, ptr %13, align 4
  %100 = load i32, ptr %20, align 4
  %101 = xor i32 %100, %.04041
  store i32 %101, ptr %18, align 4
  %102 = getelementptr inbounds nuw i8, ptr %0, i64 1208
  %.promoted.i = load i32, ptr %5, align 8
  %.promoted10.i = load i32, ptr %10, align 4
  %.promoted11.i = load i32, ptr %15, align 8
  %.promoted12.i = load i32, ptr %20, align 4
  br label %103

103:                                              ; preds = %103, %94
  %indvars.iv.i = phi i64 [ 0, %94 ], [ %indvars.iv.next.i, %103 ]
  %104 = phi i32 [ %.promoted.i, %94 ], [ %113, %103 ]
  %105 = phi i32 [ %.promoted10.i, %94 ], [ %120, %103 ]
  %106 = phi i32 [ %.promoted11.i, %94 ], [ %127, %103 ]
  %107 = phi i32 [ %.promoted12.i, %94 ], [ %134, %103 ]
  %108 = getelementptr inbounds nuw i8, ptr %3, i64 %indvars.iv.i
  %109 = load i8, ptr %108, align 4
  %110 = zext i8 %109 to i64
  %111 = getelementptr inbounds nuw [256 x i32], ptr %102, i64 0, i64 %110
  %112 = load i32, ptr %111, align 4
  %113 = xor i32 %112, %104
  %114 = or disjoint i64 %indvars.iv.i, 1
  %115 = getelementptr inbounds nuw i8, ptr %3, i64 %114
  %116 = load i8, ptr %115, align 1
  %117 = zext i8 %116 to i64
  %118 = getelementptr inbounds nuw [256 x i32], ptr %102, i64 0, i64 %117
  %119 = load i32, ptr %118, align 4
  %120 = xor i32 %119, %105
  %121 = or disjoint i64 %indvars.iv.i, 2
  %122 = getelementptr inbounds nuw i8, ptr %3, i64 %121
  %123 = load i8, ptr %122, align 2
  %124 = zext i8 %123 to i64
  %125 = getelementptr inbounds nuw [256 x i32], ptr %102, i64 0, i64 %124
  %126 = load i32, ptr %125, align 4
  %127 = xor i32 %126, %106
  %128 = or disjoint i64 %indvars.iv.i, 3
  %129 = getelementptr inbounds nuw i8, ptr %3, i64 %128
  %130 = load i8, ptr %129, align 1
  %131 = zext i8 %130 to i64
  %132 = getelementptr inbounds nuw [256 x i32], ptr %102, i64 0, i64 %131
  %133 = load i32, ptr %132, align 4
  %134 = xor i32 %133, %107
  %indvars.iv.next.i = add nuw nsw i64 %indvars.iv.i, 4
  %135 = icmp samesign ult i64 %indvars.iv.i, 12
  br i1 %135, label %103, label %_ZN9CryptData9UpdKeys20EPh.exit, !llvm.loop !14

_ZN9CryptData9UpdKeys20EPh.exit:                  ; preds = %103
  store i32 %113, ptr %5, align 8
  store i32 %120, ptr %10, align 4
  store i32 %127, ptr %15, align 8
  store i32 %134, ptr %20, align 4
  ret void
}